target datalayout = "e-m:e-p270:32:32-p271:32:32-p272:64:64-i64:64-i128:128-f80:128-n8:16:32:64-S128"
target triple = "x86_64-unknown-linux-gnu"

%"class.google::LogMessageVoidify" = type { i8 }
%"class.google::LogMessageFatal" = type { %"class.google::LogMessage" }
%"class.google::LogMessage" = type { ptr, ptr, %"struct.google::LogMessageTime" }
%"struct.google::LogMessageTime" = type { %struct.tm, i64, i32, i64 }
%struct.tm = type { i32, i32, i32, i32, i32, i32, i32, i32, i32, i64, ptr }
%"class.proxygen::ZlibStreamCompressor" = type <{ %"class.proxygen::StreamCompressor", i32, i32, %struct.z_stream_s, i32, i8, [3 x i8] }>
%"class.proxygen::StreamCompressor" = type { ptr }
%struct.z_stream_s = type { ptr, i32, i64, ptr, i32, i64, ptr, ptr, ptr, ptr, ptr, i32, i64, i64 }

@.str.2 = private unnamed_addr constant [139 x i8] c"generated/home/dtcxzyw/WorkSpace/Projects/compilers/llvm-opt-benchmark/bench/proxygen/proxygen/proxygen/lib/utils/ZlibStreamCompressor.cpp\00", align 1
@.str.3 = private unnamed_addr constant [62 x i8] c"Check failed: level_ == (-1) || (level_ >= 0 && level_ <= 9) \00", align 1
@.str.4 = private unnamed_addr constant [39 x i8] c"Invalid Zlib compression level. level=\00", align 1
@.str.5 = private unnamed_addr constant [7 x i8] c"1.2.13\00", align 1
@.str.6 = private unnamed_addr constant [21 x i8] c"Check failed: false \00", align 1
@.str.7 = private unnamed_addr constant [35 x i8] c"Unsupported zlib compression type.\00", align 1
@.str.8 = private unnamed_addr constant [35 x i8] c"error initializing zlib stream. r=\00", align 1

; Function Attrs: mustprogress nounwind uwtable
define linkonce_odr void @_ZN6google17LogMessageVoidifyanERSo(ptr noundef nonnull align 1 dereferenceable(1) %this, ptr noundef nonnull align 8 dereferenceable(8) %0) #3 comdat align 2 {
entry:
  %this.addr = alloca ptr, align 8
  %.addr = alloca ptr, align 8
  store ptr %this, ptr %this.addr, align 8
  store ptr %0, ptr %.addr, align 8
  ret void
}

; Function Attrs: mustprogress nounwind uwtable
define linkonce_odr void @_ZN6google17LogMessageVoidifyC2Ev(ptr noundef nonnull align 1 dereferenceable(1) %this) unnamed_addr #3 comdat align 2 {
entry:
  %this.addr = alloca ptr, align 8
  store ptr %this, ptr %this.addr, align 8
  ret void
}

; Function Attrs: mustprogress uwtable
define void @_ZN8proxygen20ZlibStreamCompressor4initEv(ptr noundef nonnull align 8 dereferenceable(133) %this) #2 align 2 personality ptr @__gxx_personality_v0 {
entry:
  %this.addr = alloca ptr, align 8
  %ref.tmp = alloca %"class.google::LogMessageVoidify", align 1
  %ref.tmp14 = alloca %"class.google::LogMessageFatal", align 8
  %cleanup.cond = alloca i1, align 1
  %exn.slot = alloca ptr, align 8
  %ehselector.slot = alloca i32, align 4
  %windowBits = alloca i32, align 4
  %ref.tmp39 = alloca %"class.google::LogMessageVoidify", align 1
  %ref.tmp40 = alloca %"class.google::LogMessageFatal", align 8
  %ref.tmp53 = alloca %"class.google::LogMessage", align 8
  store ptr %this, ptr %this.addr, align 8
  %this1 = load ptr, ptr %this.addr, align 8
  %init_ = getelementptr inbounds %"class.proxygen::ZlibStreamCompressor", ptr %this1, i32 0, i32 5
  %0 = load i8, ptr %init_, align 4
  %tobool = trunc i8 %0 to i1
  br i1 %tobool, label %if.then, label %if.end

if.then:                                          ; preds = %entry
  br label %if.end62

if.end:                                           ; preds = %entry
  %init_2 = getelementptr inbounds %"class.proxygen::ZlibStreamCompressor", ptr %this1, i32 0, i32 5
  store i8 1, ptr %init_2, align 4
  %status_ = getelementptr inbounds %"class.proxygen::ZlibStreamCompressor", ptr %this1, i32 0, i32 4
  store i32 0, ptr %status_, align 8
  %zlibStream_ = getelementptr inbounds %"class.proxygen::ZlibStreamCompressor", ptr %this1, i32 0, i32 3
  %zalloc = getelementptr inbounds %struct.z_stream_s, ptr %zlibStream_, i32 0, i32 8
  store ptr null, ptr %zalloc, align 8
  %zlibStream_3 = getelementptr inbounds %"class.proxygen::ZlibStreamCompressor", ptr %this1, i32 0, i32 3
  %zfree = getelementptr inbounds %struct.z_stream_s, ptr %zlibStream_3, i32 0, i32 9
  store ptr null, ptr %zfree, align 8
  %zlibStream_4 = getelementptr inbounds %"class.proxygen::ZlibStreamCompressor", ptr %this1, i32 0, i32 3
  %opaque = getelementptr inbounds %struct.z_stream_s, ptr %zlibStream_4, i32 0, i32 10
  store ptr null, ptr %opaque, align 8
  %zlibStream_5 = getelementptr inbounds %"class.proxygen::ZlibStreamCompressor", ptr %this1, i32 0, i32 3
  %total_in = getelementptr inbounds %struct.z_stream_s, ptr %zlibStream_5, i32 0, i32 2
  store i64 0, ptr %total_in, align 8
  %zlibStream_6 = getelementptr inbounds %"class.proxygen::ZlibStreamCompressor", ptr %this1, i32 0, i32 3
  %next_in = getelementptr inbounds %struct.z_stream_s, ptr %zlibStream_6, i32 0, i32 0
  store ptr null, ptr %next_in, align 8
  %zlibStream_7 = getelementptr inbounds %"class.proxygen::ZlibStreamCompressor", ptr %this1, i32 0, i32 3
  %avail_in = getelementptr inbounds %struct.z_stream_s, ptr %zlibStream_7, i32 0, i32 1
  store i32 0, ptr %avail_in, align 8
  %zlibStream_8 = getelementptr inbounds %"class.proxygen::ZlibStreamCompressor", ptr %this1, i32 0, i32 3
  %avail_out = getelementptr inbounds %struct.z_stream_s, ptr %zlibStream_8, i32 0, i32 4
  store i32 0, ptr %avail_out, align 8
  %zlibStream_9 = getelementptr inbounds %"class.proxygen::ZlibStreamCompressor", ptr %this1, i32 0, i32 3
  %next_out = getelementptr inbounds %struct.z_stream_s, ptr %zlibStream_9, i32 0, i32 3
  store ptr null, ptr %next_out, align 8
  br label %while.cond

while.cond:                                       ; preds = %cleanup.done, %if.end
  br i1 false, label %while.body, label %while.end

while.body:                                       ; preds = %while.cond
  %level_ = getelementptr inbounds %"class.proxygen::ZlibStreamCompressor", ptr %this1, i32 0, i32 2
  %1 = load i32, ptr %level_, align 4
  %cmp = icmp eq i32 %1, -1
  store i1 false, ptr %cleanup.cond, align 1
  br i1 %cmp, label %lor.end, label %lor.rhs

lor.rhs:                                          ; preds = %while.body
  %level_10 = getelementptr inbounds %"class.proxygen::ZlibStreamCompressor", ptr %this1, i32 0, i32 2
  %2 = load i32, ptr %level_10, align 4
  %cmp11 = icmp sge i32 %2, 0
  br i1 %cmp11, label %land.rhs, label %land.end

land.rhs:                                         ; preds = %lor.rhs
  %level_12 = getelementptr inbounds %"class.proxygen::ZlibStreamCompressor", ptr %this1, i32 0, i32 2
  %3 = load i32, ptr %level_12, align 4
  %cmp13 = icmp sle i32 %3, 9
  br label %land.end

land.end:                                         ; preds = %land.rhs, %lor.rhs
  %4 = phi i1 [ false, %lor.rhs ], [ %cmp13, %land.rhs ]
  br label %lor.end

lor.end:                                          ; preds = %land.end, %while.body
  %5 = phi i1 [ true, %while.body ], [ %4, %land.end ]
  %lnot = xor i1 %5, true
  br i1 %lnot, label %cond.false, label %cond.true

cond.true:                                        ; preds = %lor.end
  br label %cond.end

cond.false:                                       ; preds = %lor.end
  call void @_ZN6google17LogMessageVoidifyC2Ev(ptr noundef nonnull align 1 dereferenceable(1) %ref.tmp)
  call void @_ZN6google15LogMessageFatalC1EPKci(ptr noundef nonnull align 8 dereferenceable(96) %ref.tmp14, ptr noundef @.str.2, i32 noundef 67)
  store i1 true, ptr %cleanup.cond, align 1
  %call = invoke noundef nonnull align 8 dereferenceable(8) ptr @_ZN6google10LogMessage6streamEv(ptr noundef nonnull align 8 dereferenceable(96) %ref.tmp14)
          to label %invoke.cont unwind label %lpad

invoke.cont:                                      ; preds = %cond.false
  %call16 = invoke noundef nonnull align 8 dereferenceable(8) ptr @_ZStlsISt11char_traitsIcEERSt13basic_ostreamIcT_ES5_PKc(ptr noundef nonnull align 8 dereferenceable(8) %call, ptr noundef @.str.3)
          to label %invoke.cont15 unwind label %lpad

invoke.cont15:                                    ; preds = %invoke.cont
  %call18 = invoke noundef nonnull align 8 dereferenceable(8) ptr @_ZStlsISt11char_traitsIcEERSt13basic_ostreamIcT_ES5_PKc(ptr noundef nonnull align 8 dereferenceable(8) %call16, ptr noundef @.str.4)
          to label %invoke.cont17 unwind label %lpad

invoke.cont17:                                    ; preds = %invoke.cont15
  %level_19 = getelementptr inbounds %"class.proxygen::ZlibStreamCompressor", ptr %this1, i32 0, i32 2
  %6 = load i32, ptr %level_19, align 4
  %call21 = invoke noundef nonnull align 8 dereferenceable(8) ptr @_ZNSolsEi(ptr noundef nonnull align 8 dereferenceable(8) %call18, i32 noundef %6)
          to label %invoke.cont20 unwind label %lpad

invoke.cont20:                                    ; preds = %invoke.cont17
  invoke void @_ZN6google17LogMessageVoidifyanERSo(ptr noundef nonnull align 1 dereferenceable(1) %ref.tmp, ptr noundef nonnull align 8 dereferenceable(8) %call21)
          to label %invoke.cont22 unwind label %lpad

invoke.cont22:                                    ; preds = %invoke.cont20
  br label %cond.end

cond.end:                                         ; preds = %invoke.cont22, %cond.true
  %cleanup.is_active = load i1, ptr %cleanup.cond, align 1
  br i1 %cleanup.is_active, label %cleanup.action, label %cleanup.done

cleanup.action:                                   ; preds = %cond.end
  call void @_ZN6google15LogMessageFatalD1Ev(ptr noundef nonnull align 8 dereferenceable(96) %ref.tmp14) #11
  unreachable

lpad:                                             ; preds = %invoke.cont20, %invoke.cont17, %invoke.cont15, %invoke.cont, %cond.false
  %7 = landingpad { ptr, i32 }
          cleanup
  %8 = extractvalue { ptr, i32 } %7, 0
  store ptr %8, ptr %exn.slot, align 8
  %9 = extractvalue { ptr, i32 } %7, 1
  store i32 %9, ptr %ehselector.slot, align 4
  %cleanup.is_active23 = load i1, ptr %cleanup.cond, align 1
  br i1 %cleanup.is_active23, label %cleanup.action24, label %cleanup.done25

10:                                               ; No predecessors!
  br label %cleanup.done

cleanup.done:                                     ; preds = %10, %cond.end
  br label %while.cond, !llvm.loop !4

cleanup.action24:                                 ; preds = %lpad
  call void @_ZN6google15LogMessageFatalD1Ev(ptr noundef nonnull align 8 dereferenceable(96) %ref.tmp14) #11
  unreachable

11:                                               ; No predecessors!
  br label %cleanup.done25

cleanup.done25:                                   ; preds = %11, %lpad
  br label %eh.resume

while.end:                                        ; preds = %while.cond
  %type_ = getelementptr inbounds %"class.proxygen::ZlibStreamCompressor", ptr %this1, i32 0, i32 1
  %12 = load i32, ptr %type_, align 8
  switch i32 %12, label %sw.default [
    i32 2, label %sw.bb
    i32 1, label %sw.bb32
  ]

sw.bb:                                            ; preds = %while.end
  %type_26 = getelementptr inbounds %"class.proxygen::ZlibStreamCompressor", ptr %this1, i32 0, i32 1
  %13 = load i32, ptr %type_26, align 8
  %cmp27 = icmp eq i32 %13, 2
  %cond = select i1 %cmp27, i32 31, i32 15
  store i32 %cond, ptr %windowBits, align 4
  %zlibStream_28 = getelementptr inbounds %"class.proxygen::ZlibStreamCompressor", ptr %this1, i32 0, i32 3
  %level_29 = getelementptr inbounds %"class.proxygen::ZlibStreamCompressor", ptr %this1, i32 0, i32 2
  %14 = load i32, ptr %level_29, align 4
  %15 = load i32, ptr %windowBits, align 4
  %call30 = call i32 @deflateInit2_(ptr noundef %zlibStream_28, i32 noundef %14, i32 noundef 8, i32 noundef %15, i32 noundef 9, i32 noundef 0, ptr noundef @.str.5, i32 noundef 112)
  %status_31 = getelementptr inbounds %"class.proxygen::ZlibStreamCompressor", ptr %this1, i32 0, i32 4
  store i32 %call30, ptr %status_31, align 8
  br label %sw.epilog

sw.bb32:                                          ; preds = %while.end
  %zlibStream_33 = getelementptr inbounds %"class.proxygen::ZlibStreamCompressor", ptr %this1, i32 0, i32 3
  %level_34 = getelementptr inbounds %"class.proxygen::ZlibStreamCompressor", ptr %this1, i32 0, i32 2
  %16 = load i32, ptr %level_34, align 4
  %call35 = call i32 @deflateInit_(ptr noundef %zlibStream_33, i32 noundef %16, ptr noundef @.str.5, i32 noundef 112)
  %status_36 = getelementptr inbounds %"class.proxygen::ZlibStreamCompressor", ptr %this1, i32 0, i32 4
  store i32 %call35, ptr %status_36, align 8
  br label %sw.epilog

sw.default:                                       ; preds = %while.end
  br label %while.cond37

while.cond37:                                     ; preds = %sw.default
  br i1 false, label %while.body38, label %while.end49

while.body38:                                     ; preds = %while.cond37
  call void @_ZN6google17LogMessageVoidifyC2Ev(ptr noundef nonnull align 1 dereferenceable(1) %ref.tmp39)
  call void @_ZN6google15LogMessageFatalC1EPKci(ptr noundef nonnull align 8 dereferenceable(96) %ref.tmp40, ptr noundef @.str.2, i32 noundef 85)
  %call43 = invoke noundef nonnull align 8 dereferenceable(8) ptr @_ZN6google10LogMessage6streamEv(ptr noundef nonnull align 8 dereferenceable(96) %ref.tmp40)
          to label %invoke.cont42 unwind label %lpad41

invoke.cont42:                                    ; preds = %while.body38
  %call45 = invoke noundef nonnull align 8 dereferenceable(8) ptr @_ZStlsISt11char_traitsIcEERSt13basic_ostreamIcT_ES5_PKc(ptr noundef nonnull align 8 dereferenceable(8) %call43, ptr noundef @.str.6)
          to label %invoke.cont44 unwind label %lpad41

invoke.cont44:                                    ; preds = %invoke.cont42
  %call47 = invoke noundef nonnull align 8 dereferenceable(8) ptr @_ZStlsISt11char_traitsIcEERSt13basic_ostreamIcT_ES5_PKc(ptr noundef nonnull align 8 dereferenceable(8) %call45, ptr noundef @.str.7)
          to label %invoke.cont46 unwind label %lpad41

invoke.cont46:                                    ; preds = %invoke.cont44
  invoke void @_ZN6google17LogMessageVoidifyanERSo(ptr noundef nonnull align 1 dereferenceable(1) %ref.tmp39, ptr noundef nonnull align 8 dereferenceable(8) %call47)
          to label %invoke.cont48 unwind label %lpad41

invoke.cont48:                                    ; preds = %invoke.cont46
  call void @_ZN6google15LogMessageFatalD1Ev(ptr noundef nonnull align 8 dereferenceable(96) %ref.tmp40) #11
  unreachable

lpad41:                                           ; preds = %invoke.cont46, %invoke.cont44, %invoke.cont42, %while.body38
  %17 = landingpad { ptr, i32 }
          cleanup
  %18 = extractvalue { ptr, i32 } %17, 0
  store ptr %18, ptr %exn.slot, align 8
  %19 = extractvalue { ptr, i32 } %17, 1
  store i32 %19, ptr %ehselector.slot, align 4
  call void @_ZN6google15LogMessageFatalD1Ev(ptr noundef nonnull align 8 dereferenceable(96) %ref.tmp40) #11
  unreachable

20:                                               ; No predecessors!
  br label %eh.resume

while.end49:                                      ; preds = %while.cond37
  br label %sw.epilog

sw.epilog:                                        ; preds = %while.end49, %sw.bb32, %sw.bb
  %status_50 = getelementptr inbounds %"class.proxygen::ZlibStreamCompressor", ptr %this1, i32 0, i32 4
  %21 = load i32, ptr %status_50, align 8
  %cmp51 = icmp ne i32 %21, 0
  br i1 %cmp51, label %if.then52, label %if.end62

if.then52:                                        ; preds = %sw.epilog
  call void @_ZN6google10LogMessageC1EPKcii(ptr noundef nonnull align 8 dereferenceable(96) %ref.tmp53, ptr noundef @.str.2, i32 noundef 90, i32 noundef 2)
  %call56 = invoke noundef nonnull align 8 dereferenceable(8) ptr @_ZN6google10LogMessage6streamEv(ptr noundef nonnull align 8 dereferenceable(96) %ref.tmp53)
          to label %invoke.cont55 unwind label %lpad54

invoke.cont55:                                    ; preds = %if.then52
  %call58 = invoke noundef nonnull align 8 dereferenceable(8) ptr @_ZStlsISt11char_traitsIcEERSt13basic_ostreamIcT_ES5_PKc(ptr noundef nonnull align 8 dereferenceable(8) %call56, ptr noundef @.str.8)
          to label %invoke.cont57 unwind label %lpad54

invoke.cont57:                                    ; preds = %invoke.cont55
  %status_59 = getelementptr inbounds %"class.proxygen::ZlibStreamCompressor", ptr %this1, i32 0, i32 4
  %22 = load i32, ptr %status_59, align 8
  %call61 = invoke noundef nonnull align 8 dereferenceable(8) ptr @_ZNSolsEi(ptr noundef nonnull align 8 dereferenceable(8) %call58, i32 noundef %22)
          to label %invoke.cont60 unwind label %lpad54

invoke.cont60:                                    ; preds = %invoke.cont57
  call void @_ZN6google10LogMessageD1Ev(ptr noundef nonnull align 8 dereferenceable(96) %ref.tmp53) #12
  br label %if.end62

lpad54:                                           ; preds = %invoke.cont57, %invoke.cont55, %if.then52
  %23 = landingpad { ptr, i32 }
          cleanup
  %24 = extractvalue { ptr, i32 } %23, 0
  store ptr %24, ptr %exn.slot, align 8
  %25 = extractvalue { ptr, i32 } %23, 1
  store i32 %25, ptr %ehselector.slot, align 4
  call void @_ZN6google10LogMessageD1Ev(ptr noundef nonnull align 8 dereferenceable(96) %ref.tmp53) #12
  br label %eh.resume

if.end62:                                         ; preds = %invoke.cont60, %sw.epilog, %if.then
  ret void

eh.resume:                                        ; preds = %lpad54, %20, %cleanup.done25
  %exn = load ptr, ptr %exn.slot, align 8
  %sel = load i32, ptr %ehselector.slot, align 4
  %lpad.val = insertvalue { ptr, i32 } poison, ptr %exn, 0
  %lpad.val63 = insertvalue { ptr, i32 } %lpad.val, i32 %sel, 1
  resume { ptr, i32 } %lpad.val63
}