; Function Attrs: mustprogress uwtable
define void @_ZN8proxygen20ZlibStreamCompressor4initEv(ptr noundef nonnull align 8 dereferenceable(133) %this) local_unnamed_addr #1 align 2 personality ptr @__gxx_personality_v0 {
entry:
  %ref.tmp53 = alloca %"class.google::LogMessage", align 8
  %init_ = getelementptr inbounds i8, ptr %this, i64 132
  %0 = load i8, ptr %init_, align 4
  %1 = and i8 %0, 1
  %tobool.not = icmp eq i8 %1, 0
  br i1 %tobool.not, label %if.end, label %if.end62

if.end:                                           ; preds = %entry
  store i8 1, ptr %init_, align 4
  %status_ = getelementptr inbounds i8, ptr %this, i64 128
  store i32 0, ptr %status_, align 8
  %zlibStream_ = getelementptr inbounds i8, ptr %this, i64 16
  %zalloc = getelementptr inbounds i8, ptr %this, i64 80
  %total_in = getelementptr inbounds i8, ptr %this, i64 32
  store ptr null, ptr %zlibStream_, align 8
  %avail_in = getelementptr inbounds i8, ptr %this, i64 24
  store i32 0, ptr %avail_in, align 8
  %type_ = getelementptr inbounds i8, ptr %this, i64 8
  tail call void @llvm.memset.p0.i64(ptr noundef nonnull align 8 dereferenceable(20) %total_in, i8 0, i64 20, i1 false)
  tail call void @llvm.memset.p0.i64(ptr noundef nonnull align 8 dereferenceable(24) %zalloc, i8 0, i64 24, i1 false)
  %2 = load i32, ptr %type_, align 8
  switch i32 %2, label %if.end62 [
    i32 2, label %sw.bb
    i32 1, label %sw.bb32
  ]

sw.bb:                                            ; preds = %if.end
  %level_29 = getelementptr inbounds i8, ptr %this, i64 12
  %3 = load i32, ptr %level_29, align 4
  %call30 = tail call i32 @deflateInit2_(ptr noundef nonnull %zlibStream_, i32 noundef %3, i32 noundef 8, i32 noundef 31, i32 noundef 9, i32 noundef 0, ptr noundef nonnull @.str.5, i32 noundef 112)
  br label %sw.epilog

sw.bb32:                                          ; preds = %if.end
  %level_34 = getelementptr inbounds i8, ptr %this, i64 12
  %4 = load i32, ptr %level_34, align 4
  %call35 = tail call i32 @deflateInit_(ptr noundef nonnull %zlibStream_, i32 noundef %4, ptr noundef nonnull @.str.5, i32 noundef 112)
  br label %sw.epilog

sw.epilog:                                        ; preds = %sw.bb32, %sw.bb
  %call35.sink = phi i32 [ %call35, %sw.bb32 ], [ %call30, %sw.bb ]
  store i32 %call35.sink, ptr %status_, align 8
  %cmp51.not = icmp eq i32 %call35.sink, 0
  br i1 %cmp51.not, label %if.end62, label %if.then52

if.then52:                                        ; preds = %sw.epilog
  call void @_ZN6google10LogMessageC1EPKcii(ptr noundef nonnull align 8 dereferenceable(96) %ref.tmp53, ptr noundef nonnull @.str.2, i32 noundef 90, i32 noundef 2)
  %call56 = invoke noundef nonnull align 8 dereferenceable(8) ptr @_ZN6google10LogMessage6streamEv(ptr noundef nonnull align 8 dereferenceable(96) %ref.tmp53)
          to label %invoke.cont55 unwind label %lpad54

invoke.cont55:                                    ; preds = %if.then52
  %call58 = invoke noundef nonnull align 8 dereferenceable(8) ptr @_ZStlsISt11char_traitsIcEERSt13basic_ostreamIcT_ES5_PKc(ptr noundef nonnull align 8 dereferenceable(8) %call56, ptr noundef nonnull @.str.8)
          to label %invoke.cont57 unwind label %lpad54

invoke.cont57:                                    ; preds = %invoke.cont55
  %5 = load i32, ptr %status_, align 8
  %call61 = invoke noundef nonnull align 8 dereferenceable(8) ptr @_ZNSolsEi(ptr noundef nonnull align 8 dereferenceable(8) %call58, i32 noundef %5)
          to label %invoke.cont60 unwind label %lpad54

invoke.cont60:                                    ; preds = %invoke.cont57
  call void @_ZN6google10LogMessageD1Ev(ptr noundef nonnull align 8 dereferenceable(96) %ref.tmp53) #11
  br label %if.end62

lpad54:                                           ; preds = %invoke.cont57, %invoke.cont55, %if.then52
  %6 = landingpad { ptr, i32 }
          cleanup
  call void @_ZN6google10LogMessageD1Ev(ptr noundef nonnull align 8 dereferenceable(96) %ref.tmp53) #11
  resume { ptr, i32 } %6

if.end62:                                         ; preds = %if.end, %entry, %invoke.cont60, %sw.epilog
  ret void
}